target datalayout = "e-m:e-p270:32:32-p271:32:32-p272:64:64-i64:64-i128:128-f80:128-n8:16:32:64-S128"
target triple = "x86_64-pc-linux-gnu"

%union.stbcc__global_clumpid = type { %struct.anon }
%struct.anon = type { i32 }
%struct.st_stbcc_grid = type { i32, i32, i32, i32, i32, [1024 x [128 x i8]], [1024 x [1024 x i16]], [32 x [32 x %struct.stbcc__cluster]] }
%struct.stbcc__cluster = type { i16, i8, i8, [512 x %struct.stbcc__clump], [128 x %struct.stbcc__relative_clumpid] }
%struct.stbcc__clump = type { %union.stbcc__global_clumpid, i8, i8, i8, i8 }
%struct.stbcc__relative_clumpid = type { i16 }

; Function Attrs: nounwind uwtable
define i32 @stbcc_get_unique_id(ptr noundef %0, i32 noundef %1, i32 noundef %2) #0 {
  %4 = alloca i32, align 4
  %5 = alloca ptr, align 8
  %6 = alloca i32, align 4
  %7 = alloca i32, align 4
  %8 = alloca i16, align 2
  %9 = alloca i32, align 4
  %10 = alloca i32, align 4
  %11 = alloca i32, align 4
  store ptr %0, ptr %5, align 8, !tbaa !3
  store i32 %1, ptr %6, align 4, !tbaa !8
  store i32 %2, ptr %7, align 4, !tbaa !8
  call void @llvm.lifetime.start.p0(i64 2, ptr %8) #4
  %12 = load ptr, ptr %5, align 8, !tbaa !3
  %13 = getelementptr inbounds nuw %struct.st_stbcc_grid, ptr %12, i32 0, i32 6
  %14 = load i32, ptr %7, align 4, !tbaa !8
  %15 = sext i32 %14 to i64
  %16 = getelementptr inbounds [1024 x [1024 x i16]], ptr %13, i64 0, i64 %15
  %17 = load i32, ptr %6, align 4, !tbaa !8
  %18 = sext i32 %17 to i64
  %19 = getelementptr inbounds [1024 x i16], ptr %16, i64 0, i64 %18
  %20 = load i16, ptr %19, align 2, !tbaa !10
  store i16 %20, ptr %8, align 2, !tbaa !10
  call void @llvm.lifetime.start.p0(i64 4, ptr %9) #4
  %21 = load i32, ptr %6, align 4, !tbaa !8
  %22 = ashr i32 %21, 5
  store i32 %22, ptr %9, align 4, !tbaa !8
  call void @llvm.lifetime.start.p0(i64 4, ptr %10) #4
  %23 = load i32, ptr %7, align 4, !tbaa !8
  %24 = ashr i32 %23, 5
  store i32 %24, ptr %10, align 4, !tbaa !8
  %25 = load i16, ptr %8, align 2, !tbaa !10
  %26 = zext i16 %25 to i32
  %27 = icmp eq i32 %26, 512
  br i1 %27, label %28, label %29

28:                                               ; preds = %3
  store i32 -1, ptr %4, align 4
  store i32 1, ptr %11, align 4
  br label %44

29:                                               ; preds = %3
  %30 = load ptr, ptr %5, align 8, !tbaa !3
  %31 = getelementptr inbounds nuw %struct.st_stbcc_grid, ptr %30, i32 0, i32 7
  %32 = load i32, ptr %10, align 4, !tbaa !8
  %33 = sext i32 %32 to i64
  %34 = getelementptr inbounds [32 x [32 x %struct.stbcc__cluster]], ptr %31, i64 0, i64 %33
  %35 = load i32, ptr %9, align 4, !tbaa !8
  %36 = sext i32 %35 to i64
  %37 = getelementptr inbounds [32 x %struct.stbcc__cluster], ptr %34, i64 0, i64 %36
  %38 = getelementptr inbounds nuw %struct.stbcc__cluster, ptr %37, i32 0, i32 3
  %39 = load i16, ptr %8, align 2, !tbaa !10
  %40 = zext i16 %39 to i64
  %41 = getelementptr inbounds nuw [512 x %struct.stbcc__clump], ptr %38, i64 0, i64 %40
  %42 = getelementptr inbounds nuw %struct.stbcc__clump, ptr %41, i32 0, i32 0
  %43 = load i32, ptr %42, align 4, !tbaa !13
  store i32 %43, ptr %4, align 4
  store i32 1, ptr %11, align 4
  br label %44

44:                                               ; preds = %29, %28
  call void @llvm.lifetime.end.p0(i64 4, ptr %10) #4
  call void @llvm.lifetime.end.p0(i64 4, ptr %9) #4
  call void @llvm.lifetime.end.p0(i64 2, ptr %8) #4
  %45 = load i32, ptr %4, align 4
  ret i32 %45
}