; Function Attrs: mustprogress nofree norecurse nosync nounwind willreturn memory(argmem: read) uwtable
define i32 @stbcc_get_unique_id(ptr noundef readonly captures(none) %0, i32 noundef %1, i32 noundef %2) local_unnamed_addr #0 {
  %4 = getelementptr inbounds nuw i8, ptr %0, i64 131092
  %5 = sext i32 %2 to i64
  %6 = sext i32 %1 to i64
  %7 = getelementptr inbounds [1024 x [1024 x i16]], ptr %4, i64 0, i64 %5, i64 %6
  %8 = load i16, ptr %7, align 2, !tbaa !3
  %9 = icmp eq i16 %8, 512
  br i1 %9, label %21, label %10

10:                                               ; preds = %3
  %11 = ashr i32 %2, 5
  %12 = ashr i32 %1, 5
  %13 = sext i32 %11 to i64
  %14 = sext i32 %12 to i64
  %.idx = mul nsw i64 %13, 139392
  %.idx10 = mul nsw i64 %14, 4356
  %15 = getelementptr i8, ptr %0, i64 2228248
  %16 = getelementptr i8, ptr %15, i64 %.idx
  %17 = getelementptr i8, ptr %16, i64 %.idx10
  %18 = zext i16 %8 to i64
  %19 = getelementptr inbounds nuw [512 x %struct.stbcc__clump], ptr %17, i64 0, i64 %18
  %20 = load i32, ptr %19, align 4, !tbaa !7
  br label %21

21:                                               ; preds = %3, %10
  %.0 = phi i32 [ %20, %10 ], [ -1, %3 ]
  ret i32 %.0
}